; Function Attrs: mustprogress nounwind uwtable
define dso_local range(i32 4, 21) i32 @_ZNK4llvm24MachineConstantPoolEntry14getSectionKindEPKNS_10DataLayoutE(ptr noundef nonnull readonly align 8 captures(none) dereferenceable(10) %0, ptr noundef %1) local_unnamed_addr #0 align 2 {
  %3 = alloca %"class.llvm::TypeSize", align 8
  %4 = getelementptr inbounds nuw i8, ptr %0, i64 9
  %5 = load i8, ptr %4, align 1
  %6 = trunc i8 %5 to i1
  br i1 %6, label %_ZNK4llvm24MachineConstantPoolEntry15needsRelocationEv.exit.thread, label %_ZNK4llvm24MachineConstantPoolEntry15needsRelocationEv.exit

_ZNK4llvm24MachineConstantPoolEntry15needsRelocationEv.exit: ; preds = %2
  %7 = load ptr, ptr %0, align 8
  %8 = tail call noundef zeroext i1 @_ZNK4llvm8Constant22needsDynamicRelocationEv(ptr noundef nonnull align 8 dereferenceable(24) %7) #25
  br i1 %8, label %_ZNK4llvm24MachineConstantPoolEntry15needsRelocationEv.exit.thread, label %9

9:                                                ; preds = %_ZNK4llvm24MachineConstantPoolEntry15needsRelocationEv.exit
  call void @llvm.lifetime.start.p0(i64 16, ptr nonnull %3)
  %10 = load i8, ptr %4, align 1
  %11 = trunc i8 %10 to i1
  %12 = load ptr, ptr %0, align 8
  br i1 %11, label %13, label %18

13:                                               ; preds = %9
  %14 = load ptr, ptr %12, align 8
  %15 = getelementptr inbounds nuw i8, ptr %14, i64 24
  %16 = load ptr, ptr %15, align 8
  %17 = tail call noundef i32 %16(ptr noundef nonnull align 8 dereferenceable(16) %12, ptr noundef nonnull align 8 dereferenceable(512) %1) #25
  br label %_ZNK4llvm24MachineConstantPoolEntry14getSizeInBytesERKNS_10DataLayoutE.exit

18:                                               ; preds = %9
  %19 = getelementptr inbounds nuw i8, ptr %12, i64 8
  %20 = load ptr, ptr %19, align 8
  %21 = tail call { i64, i8 } @_ZNK4llvm10DataLayout17getTypeSizeInBitsEPNS_4TypeE(ptr noundef nonnull align 8 dereferenceable(512) %1, ptr noundef %20)
  %.fca.0.extract.i13.i.i = extractvalue { i64, i8 } %21, 0
  %.fca.1.extract.i14.i.i = extractvalue { i64, i8 } %21, 1
  %22 = add i64 %.fca.0.extract.i13.i.i, 7
  %23 = and i8 %.fca.1.extract.i14.i.i, 1
  %24 = lshr i64 %22, 3
  %25 = tail call i8 @_ZNK4llvm10DataLayout15getABITypeAlignEPNS_4TypeE(ptr noundef nonnull align 8 dereferenceable(512) %1, ptr noundef %20) #25
  %26 = zext nneg i8 %25 to i64
  %27 = shl nuw i64 1, %26
  %28 = add nsw i64 %24, -1
  %29 = add i64 %28, %27
  %.not.i.i = sub i64 0, %27
  %30 = and i64 %29, %.not.i.i
  store i64 %30, ptr %3, align 8
  %.sroa.2.0..sroa_idx.i = getelementptr inbounds nuw i8, ptr %3, i64 8
  store i8 %23, ptr %.sroa.2.0..sroa_idx.i, align 8
  %31 = call noundef i64 @_ZNK4llvm8TypeSizecvmEv(ptr noundef nonnull align 8 dereferenceable(9) %3) #25
  %32 = trunc i64 %31 to i32
  br label %_ZNK4llvm24MachineConstantPoolEntry14getSizeInBytesERKNS_10DataLayoutE.exit

_ZNK4llvm24MachineConstantPoolEntry14getSizeInBytesERKNS_10DataLayoutE.exit: ; preds = %13, %18
  %.0.i2 = phi i32 [ %17, %13 ], [ %32, %18 ]
  call void @llvm.lifetime.end.p0(i64 16, ptr nonnull %3)
  %33 = add i32 %.0.i2, -4
  %34 = call i32 @llvm.fshl.i32(i32 %33, i32 %33, i32 30)
  %35 = icmp ult i32 %34, 8
  br i1 %35, label %switch.lookup, label %_ZNK4llvm24MachineConstantPoolEntry15needsRelocationEv.exit.thread

switch.lookup:                                    ; preds = %_ZNK4llvm24MachineConstantPoolEntry14getSizeInBytesERKNS_10DataLayoutE.exit
  %36 = zext nneg i32 %34 to i64
  %switch.gep = getelementptr inbounds nuw [8 x i32], ptr @switch.table._ZNK4llvm24MachineConstantPoolEntry14getSectionKindEPKNS_10DataLayoutE, i64 0, i64 %36
  %switch.load = load i32, ptr %switch.gep, align 4
  br label %_ZNK4llvm24MachineConstantPoolEntry15needsRelocationEv.exit.thread

_ZNK4llvm24MachineConstantPoolEntry15needsRelocationEv.exit.thread: ; preds = %_ZNK4llvm24MachineConstantPoolEntry14getSizeInBytesERKNS_10DataLayoutE.exit, %switch.lookup, %2, %_ZNK4llvm24MachineConstantPoolEntry15needsRelocationEv.exit
  %.sroa.0.0.in = phi i32 [ 20, %_ZNK4llvm24MachineConstantPoolEntry15needsRelocationEv.exit ], [ 20, %2 ], [ %switch.load, %switch.lookup ], [ 4, %_ZNK4llvm24MachineConstantPoolEntry14getSizeInBytesERKNS_10DataLayoutE.exit ]
  ret i32 %.sroa.0.0.in
}